; Function Attrs: nounwind uwtable
define ptr @Cba_VecCopy(ptr noundef captures(none) initializes((4, 8)) %0, ptr noundef readonly captures(none) %1, i32 noundef %2) local_unnamed_addr #0 {
  %4 = getelementptr inbounds nuw i8, ptr %0, i64 4
  store i32 0, ptr %4, align 4
  %5 = icmp sgt i32 %2, 0
  br i1 %5, label %.lr.ph, label %._crit_edge

.lr.ph:                                           ; preds = %3
  %.phi.trans.insert.i = getelementptr inbounds nuw i8, ptr %0, i64 8
  %wide.trip.count = zext nneg i32 %2 to i64
  br label %6

thread-pre-split:                                 ; preds = %Vec_IntPush.exit
  %.pr = load i32, ptr %4, align 4
  br label %6

6:                                                ; preds = %thread-pre-split, %.lr.ph
  %7 = phi i32 [ %.pr, %thread-pre-split ], [ 0, %.lr.ph ]
  %indvars.iv = phi i64 [ %indvars.iv.next, %thread-pre-split ], [ 0, %.lr.ph ]
  %8 = getelementptr inbounds nuw i32, ptr %1, i64 %indvars.iv
  %9 = load i32, ptr %8, align 4
  %10 = load i32, ptr %0, align 8
  %11 = icmp eq i32 %7, %10
  br i1 %11, label %12, label %.Vec_IntGrow.exit10_crit_edge.i

.Vec_IntGrow.exit10_crit_edge.i:                  ; preds = %6
  %.pre.i = load ptr, ptr %.phi.trans.insert.i, align 8
  br label %Vec_IntPush.exit

12:                                               ; preds = %6
  %13 = icmp slt i32 %7, 16
  br i1 %13, label %14, label %21

14:                                               ; preds = %12
  %15 = load ptr, ptr %.phi.trans.insert.i, align 8
  %.not9.i.i = icmp eq ptr %15, null
  br i1 %.not9.i.i, label %18, label %16

16:                                               ; preds = %14
  %17 = tail call dereferenceable_or_null(64) ptr @realloc(ptr noundef nonnull %15, i64 noundef 64) #18
  br label %Vec_IntGrow.exit.i

18:                                               ; preds = %14
  %19 = tail call noalias dereferenceable_or_null(64) ptr @malloc(i64 noundef 64) #19
  br label %Vec_IntGrow.exit.i

Vec_IntGrow.exit.i:                               ; preds = %18, %16
  %20 = phi ptr [ %17, %16 ], [ %19, %18 ]
  store ptr %20, ptr %.phi.trans.insert.i, align 8
  store i32 16, ptr %0, align 8
  br label %Vec_IntPush.exit

21:                                               ; preds = %12
  %22 = shl nuw nsw i32 %7, 1
  %23 = load ptr, ptr %.phi.trans.insert.i, align 8
  %.not9.i9.i = icmp eq ptr %23, null
  %24 = zext nneg i32 %22 to i64
  %25 = shl nuw nsw i64 %24, 2
  br i1 %.not9.i9.i, label %28, label %26

26:                                               ; preds = %21
  %27 = tail call ptr @realloc(ptr noundef nonnull %23, i64 noundef %25) #18
  br label %30

28:                                               ; preds = %21
  %29 = tail call noalias ptr @malloc(i64 noundef %25) #19
  br label %30

30:                                               ; preds = %28, %26
  %31 = phi ptr [ %27, %26 ], [ %29, %28 ]
  store ptr %31, ptr %.phi.trans.insert.i, align 8
  store i32 %22, ptr %0, align 8
  br label %Vec_IntPush.exit

Vec_IntPush.exit:                                 ; preds = %.Vec_IntGrow.exit10_crit_edge.i, %Vec_IntGrow.exit.i, %30
  %32 = phi ptr [ %.pre.i, %.Vec_IntGrow.exit10_crit_edge.i ], [ %31, %30 ], [ %20, %Vec_IntGrow.exit.i ]
  %33 = load i32, ptr %4, align 4
  %34 = add nsw i32 %33, 1
  store i32 %34, ptr %4, align 4
  %35 = sext i32 %33 to i64
  %36 = getelementptr inbounds i32, ptr %32, i64 %35
  store i32 %9, ptr %36, align 4
  %indvars.iv.next = add nuw nsw i64 %indvars.iv, 1
  %exitcond.not = icmp eq i64 %indvars.iv.next, %wide.trip.count
  br i1 %exitcond.not, label %._crit_edge, label %thread-pre-split, !llvm.loop !7

._crit_edge:                                      ; preds = %Vec_IntPush.exit, %3
  %37 = getelementptr i8, ptr %0, i64 8
  %.val = load ptr, ptr %37, align 8
  ret ptr %.val
}